; Function Attrs: nounwind uwtable
define dso_local noundef ptr @list_copy_tail(ptr noundef readonly captures(address_is_null) %0, i32 noundef %1) local_unnamed_addr #0 {
  %spec.store.select = tail call i32 @llvm.smax.i32(i32 %1, i32 0)
  %3 = icmp eq ptr %0, null
  br i1 %3, label %32, label %4

4:                                                ; preds = %2
  %5 = getelementptr inbounds nuw i8, ptr %0, i64 4
  %6 = load i32, ptr %5, align 4
  %.not = icmp slt i32 %spec.store.select, %6
  br i1 %.not, label %7, label %32

7:                                                ; preds = %4
  %8 = load i32, ptr %0, align 8
  %9 = sub nsw i32 %6, %spec.store.select
  %10 = add i32 %9, 3
  %11 = tail call i32 @llvm.smax.i32(i32 %10, i32 8)
  %12 = tail call range(i32 1, 32) i32 @llvm.ctpop.i32(i32 %11)
  %13 = icmp samesign ult i32 %12, 2
  %14 = tail call range(i32 0, 33) i32 @llvm.ctlz.i32(i32 %11, i1 true)
  %15 = xor i32 %14, 31
  %16 = shl nuw i32 2, %15
  %.0.i.i = select i1 %13, i32 %11, i32 %16
  %17 = add i32 %.0.i.i, -3
  %18 = zext nneg i32 %17 to i64
  %19 = shl nuw nsw i64 %18, 3
  %20 = add nuw nsw i64 %19, 24
  %21 = tail call ptr @palloc(i64 noundef %20) #9
  store i32 %8, ptr %21, align 8
  %22 = getelementptr inbounds nuw i8, ptr %21, i64 4
  store i32 %9, ptr %22, align 4
  %23 = getelementptr inbounds nuw i8, ptr %21, i64 8
  store i32 %17, ptr %23, align 8
  %24 = getelementptr inbounds nuw i8, ptr %21, i64 24
  %25 = getelementptr inbounds nuw i8, ptr %21, i64 16
  store ptr %24, ptr %25, align 8
  %26 = getelementptr inbounds nuw i8, ptr %0, i64 16
  %27 = load ptr, ptr %26, align 8
  %28 = zext nneg i32 %spec.store.select to i64
  %29 = getelementptr inbounds nuw %union.ListCell, ptr %27, i64 %28
  %30 = sext i32 %9 to i64
  %31 = shl nsw i64 %30, 3
  tail call void @llvm.memcpy.p0.p0.i64(ptr nonnull align 8 %24, ptr align 8 %29, i64 %31, i1 false)
  br label %32

32:                                               ; preds = %2, %4, %7
  %.0 = phi ptr [ %21, %7 ], [ null, %4 ], [ null, %2 ]
  ret ptr %.0
}